; ModuleID = 'source-C-CXX/29/2991.c'
source_filename = "source-C-CXX/29/2991.c"
target datalayout = "e-m:e-p270:32:32-p271:32:32-p272:64:64-i64:64-f80:128-n8:16:32:64-S128"
target triple = "x86_64-pc-linux-gnu"

@.str = private unnamed_addr constant [3 x i8] c"%d\00", align 1
@.str.1 = private unnamed_addr constant [4 x i8] c"%d\0A\00", align 1

; Function Attrs: nofree nounwind sspstrong uwtable
define dso_local i32 @main() local_unnamed_addr #0 {
  %1 = alloca i32, align 4
  %2 = bitcast i32* %1 to i8*
  call void @llvm.lifetime.start.p0i8(i64 4, i8* nonnull %2) #4
  %3 = call i32 (i8*, ...) @__isoc99_scanf(i8* getelementptr inbounds ([3 x i8], [3 x i8]* @.str, i64 0, i64 0), i32* nonnull %1)
  %4 = load i32, i32* %1, align 4, !tbaa !5
  %5 = icmp slt i32 %4, 1
  br i1 %5, label %60, label %6

6:                                                ; preds = %0
  %7 = icmp ult i32 %4, 8
  br i1 %7, label %57, label %8

8:                                                ; preds = %6
  %9 = and i32 %4, -8
  %10 = or i32 %9, 1
  br label %11

11:                                               ; preds = %11, %8
  %12 = phi i32 [ 0, %8 ], [ %50, %11 ]
  %13 = phi <4 x i32> [ <i32 1, i32 2, i32 3, i32 4>, %8 ], [ %51, %11 ]
  %14 = phi <4 x i32> [ zeroinitializer, %8 ], [ %47, %11 ]
  %15 = phi <4 x i32> [ zeroinitializer, %8 ], [ %49, %11 ]
  %16 = add <4 x i32> %13, <i32 4, i32 4, i32 4, i32 4>
  %17 = urem <4 x i32> %13, <i32 7, i32 7, i32 7, i32 7>
  %18 = urem <4 x i32> %16, <i32 7, i32 7, i32 7, i32 7>
  %19 = icmp ne <4 x i32> %17, zeroinitializer
  %20 = icmp ne <4 x i32> %18, zeroinitializer
  %21 = urem <4 x i32> %13, <i32 10, i32 10, i32 10, i32 10>
  %22 = urem <4 x i32> %16, <i32 10, i32 10, i32 10, i32 10>
  %23 = icmp ne <4 x i32> %21, <i32 7, i32 7, i32 7, i32 7>
  %24 = icmp ne <4 x i32> %22, <i32 7, i32 7, i32 7, i32 7>
  %25 = icmp ugt <4 x i32> %13, <i32 9, i32 9, i32 9, i32 9>
  %26 = icmp ugt <4 x i32> %16, <i32 9, i32 9, i32 9, i32 9>
  %27 = add nsw <4 x i32> %13, <i32 -70, i32 -70, i32 -70, i32 -70>
  %28 = add <4 x i32> %13, <i32 -66, i32 -66, i32 -66, i32 -66>
  %29 = icmp ult <4 x i32> %27, <i32 10, i32 10, i32 10, i32 10>
  %30 = icmp ult <4 x i32> %28, <i32 10, i32 10, i32 10, i32 10>
  %31 = select <4 x i1> %25, <4 x i1> %29, <4 x i1> zeroinitializer
  %32 = and <4 x i1> %26, %30
  %33 = mul nsw <4 x i32> %13, %13
  %34 = mul nsw <4 x i32> %16, %16
  %35 = and <4 x i1> %19, %23
  %36 = and <4 x i1> %20, %24
  %37 = xor <4 x i1> %31, <i1 true, i1 true, i1 true, i1 true>
  %38 = and <4 x i1> %26, %30
  %39 = xor <4 x i1> %38, <i1 true, i1 true, i1 true, i1 true>
  %40 = select <4 x i1> %35, <4 x i1> %37, <4 x i1> zeroinitializer
  %41 = select <4 x i1> %36, <4 x i1> %39, <4 x i1> zeroinitializer
  %42 = select <4 x i1> %35, <4 x i1> %31, <4 x i1> zeroinitializer
  %43 = select <4 x i1> %36, <4 x i1> %32, <4 x i1> zeroinitializer
  %44 = select <4 x i1> %40, <4 x i32> %33, <4 x i32> zeroinitializer
  %45 = select <4 x i1> %41, <4 x i32> %34, <4 x i32> zeroinitializer
  %46 = select <4 x i1> %42, <4 x i32> zeroinitializer, <4 x i32> %44
  %47 = add <4 x i32> %14, %46
  %48 = select <4 x i1> %43, <4 x i32> zeroinitializer, <4 x i32> %45
  %49 = add <4 x i32> %15, %48
  %50 = add nuw i32 %12, 8
  %51 = add <4 x i32> %13, <i32 8, i32 8, i32 8, i32 8>
  %52 = icmp eq i32 %50, %9
  br i1 %52, label %53, label %11, !llvm.loop !9

53:                                               ; preds = %11
  %54 = add <4 x i32> %49, %47
  %55 = call i32 @llvm.vector.reduce.add.v4i32(<4 x i32> %54)
  %56 = icmp eq i32 %4, %9
  br i1 %56, label %60, label %57

57:                                               ; preds = %6, %53
  %58 = phi i32 [ 1, %6 ], [ %10, %53 ]
  %59 = phi i32 [ 0, %6 ], [ %55, %53 ]
  br label %63

60:                                               ; preds = %79, %53, %0
  %61 = phi i32 [ 0, %0 ], [ %55, %53 ], [ %80, %79 ]
  %62 = call i32 (i8*, ...) @printf(i8* nonnull dereferenceable(1) getelementptr inbounds ([4 x i8], [4 x i8]* @.str.1, i64 0, i64 0), i32 %61)
  call void @llvm.lifetime.end.p0i8(i64 4, i8* nonnull %2) #4
  ret i32 0

63:                                               ; preds = %57, %79
  %64 = phi i32 [ %81, %79 ], [ %58, %57 ]
  %65 = phi i32 [ %80, %79 ], [ %59, %57 ]
  %66 = urem i32 %64, 7
  %67 = icmp eq i32 %66, 0
  %68 = urem i32 %64, 10
  %69 = icmp eq i32 %68, 7
  %70 = or i1 %67, %69
  br i1 %70, label %79, label %71

71:                                               ; preds = %63
  %72 = icmp ugt i32 %64, 9
  %73 = add nsw i32 %64, -70
  %74 = icmp ult i32 %73, 10
  %75 = select i1 %72, i1 %74, i1 false
  br i1 %75, label %79, label %76

76:                                               ; preds = %71
  %77 = mul nsw i32 %64, %64
  %78 = add nsw i32 %77, %65
  br label %79

79:                                               ; preds = %71, %63, %76
  %80 = phi i32 [ %65, %63 ], [ %78, %76 ], [ %65, %71 ]
  %81 = add nuw i32 %64, 1
  %82 = icmp eq i32 %64, %4
  br i1 %82, label %60, label %63, !llvm.loop !12
}

; Function Attrs: argmemonly mustprogress nofree nosync nounwind willreturn
declare void @llvm.lifetime.start.p0i8(i64 immarg, i8* nocapture) #1

; Function Attrs: nofree nounwind
declare noundef i32 @__isoc99_scanf(i8* nocapture noundef readonly, ...) local_unnamed_addr #2

; Function Attrs: argmemonly mustprogress nofree nosync nounwind willreturn
declare void @llvm.lifetime.end.p0i8(i64 immarg, i8* nocapture) #1

; Function Attrs: nofree nounwind
declare noundef i32 @printf(i8* nocapture noundef readonly, ...) local_unnamed_addr #2

; Function Attrs: nofree nosync nounwind readnone willreturn
declare i32 @llvm.vector.reduce.add.v4i32(<4 x i32>) #3


!llvm.module.flags = !{!0, !1, !2, !3}
!llvm.ident = !{!4}

!0 = !{i32 1, !"wchar_size", i32 4}
!1 = !{i32 7, !"PIC Level", i32 2}
!2 = !{i32 7, !"PIE Level", i32 2}
!3 = !{i32 7, !"uwtable", i32 1}
!4 = !{!"clang version 13.0.0"}
!5 = !{!6, !6, i64 0}
!6 = !{!"int", !7, i64 0}
!7 = !{!"omnipotent char", !8, i64 0}
!8 = !{!"Simple C/C++ TBAA"}
!9 = distinct !{!9, !10, !11}
!10 = !{!"llvm.loop.mustprogress"}
!11 = !{!"llvm.loop.isvectorized", i32 1}
!12 = distinct !{!12, !10, !13, !11}
!13 = !{!"llvm.loop.unroll.runtime.disable"}
